target datalayout = "e-m:e-p270:32:32-p271:32:32-p272:64:64-i64:64-i128:128-f80:128-n8:16:32:64-S128"
target triple = "x86_64-pc-linux-gnu"

%struct._object = type { %union.anon.26, ptr }
%union.anon.26 = type { i64 }
%struct.PyVarObject = type { %struct._object, i64 }
%struct.PyListObject = type { %struct.PyVarObject, ptr, i64 }
%struct.anon.27 = type { i32, i32 }

@PyExc_KeyError = external global ptr, align 8

; Function Attrs: inlinehint nounwind uwtable
define internal i64 @Py_SIZE(ptr noundef %0) #3 {
  %2 = alloca ptr, align 8
  store ptr %0, ptr %2, align 8, !tbaa !32
  %3 = load ptr, ptr %2, align 8, !tbaa !32
  %4 = getelementptr inbounds nuw %struct.PyVarObject, ptr %3, i32 0, i32 1
  %5 = load i64, ptr %4, align 8, !tbaa !152
  ret i64 %5
}

; Function Attrs: alwaysinline nounwind uwtable
define internal i32 @_Py_IsImmortal(ptr noundef %0) #4 {
  %2 = alloca ptr, align 8
  store ptr %0, ptr %2, align 8, !tbaa !32
  %3 = load ptr, ptr %2, align 8, !tbaa !32
  %4 = getelementptr inbounds nuw %struct._object, ptr %3, i32 0, i32 0
  %5 = getelementptr inbounds nuw %struct.anon.27, ptr %4, i32 0, i32 0
  %6 = load i32, ptr %5, align 8, !tbaa !11
  %7 = icmp slt i32 %6, 0
  %8 = zext i1 %7 to i32
  ret i32 %8
}

; Function Attrs: inlinehint nounwind uwtable
define internal i64 @PyList_GET_SIZE(ptr noundef %0) #3 {
  %2 = alloca ptr, align 8
  %3 = alloca ptr, align 8
  store ptr %0, ptr %2, align 8, !tbaa !32
  call void @llvm.lifetime.start.p0(i64 8, ptr %3) #8
  %4 = load ptr, ptr %2, align 8, !tbaa !32
  store ptr %4, ptr %3, align 8, !tbaa !42
  %5 = load ptr, ptr %3, align 8, !tbaa !42
  %6 = call i64 @Py_SIZE(ptr noundef %5)
  call void @llvm.lifetime.end.p0(i64 8, ptr %3) #8
  ret i64 %6
}

; Function Attrs: alwaysinline nounwind uwtable
define internal void @Py_DECREF(ptr noundef %0) #4 {
  %2 = alloca ptr, align 8
  store ptr %0, ptr %2, align 8, !tbaa !32
  %3 = load ptr, ptr %2, align 8, !tbaa !32
  %4 = call i32 @_Py_IsImmortal(ptr noundef %3)
  %5 = icmp ne i32 %4, 0
  br i1 %5, label %6, label %7

6:                                                ; preds = %1
  br label %16

7:                                                ; preds = %1
  %8 = load ptr, ptr %2, align 8, !tbaa !32
  %9 = getelementptr inbounds nuw %struct._object, ptr %8, i32 0, i32 0
  %10 = getelementptr inbounds nuw %struct.anon.27, ptr %9, i32 0, i32 0
  %11 = load i32, ptr %10, align 8, !tbaa !11
  %12 = add i32 %11, -1
  store i32 %12, ptr %10, align 8, !tbaa !11
  %13 = icmp eq i32 %12, 0
  br i1 %13, label %14, label %16

14:                                               ; preds = %7
  %15 = load ptr, ptr %2, align 8, !tbaa !32
  call void @_Py_Dealloc(ptr noundef %15)
  br label %16

16:                                               ; preds = %6, %14, %7
  ret void
}

; Function Attrs: nounwind uwtable
define internal ptr @dictbytype(ptr noundef %0, i32 noundef %1, i32 noundef %2, i64 noundef %3) #0 {
  %5 = alloca ptr, align 8
  %6 = alloca ptr, align 8
  %7 = alloca i32, align 4
  %8 = alloca i32, align 4
  %9 = alloca i64, align 8
  %10 = alloca i64, align 8
  %11 = alloca i64, align 8
  %12 = alloca i64, align 8
  %13 = alloca ptr, align 8
  %14 = alloca ptr, align 8
  %15 = alloca ptr, align 8
  %16 = alloca ptr, align 8
  %17 = alloca i32, align 4
  %18 = alloca i64, align 8
  %19 = alloca ptr, align 8
  store ptr %0, ptr %6, align 8, !tbaa !32
  store i32 %1, ptr %7, align 4, !tbaa !50
  store i32 %2, ptr %8, align 4, !tbaa !50
  store i64 %3, ptr %9, align 8, !tbaa !24
  call void @llvm.lifetime.start.p0(i64 8, ptr %10) #8
  %20 = load i64, ptr %9, align 8, !tbaa !24
  store i64 %20, ptr %10, align 8, !tbaa !24
  call void @llvm.lifetime.start.p0(i64 8, ptr %11) #8
  call void @llvm.lifetime.start.p0(i64 8, ptr %12) #8
  call void @llvm.lifetime.start.p0(i64 8, ptr %13) #8
  call void @llvm.lifetime.start.p0(i64 8, ptr %14) #8
  call void @llvm.lifetime.start.p0(i64 8, ptr %15) #8
  %21 = call ptr @PyDict_New()
  store ptr %21, ptr %15, align 8, !tbaa !32
  call void @llvm.lifetime.start.p0(i64 8, ptr %16) #8
  %22 = load ptr, ptr %15, align 8, !tbaa !32
  %23 = icmp eq ptr %22, null
  br i1 %23, label %24, label %25

24:                                               ; preds = %4
  store ptr null, ptr %5, align 8
  store i32 1, ptr %17, align 4
  br label %126

25:                                               ; preds = %4
  %26 = load ptr, ptr %6, align 8, !tbaa !32
  %27 = call ptr @PyDict_Keys(ptr noundef %26)
  store ptr %27, ptr %16, align 8, !tbaa !32
  %28 = load ptr, ptr %16, align 8, !tbaa !32
  %29 = icmp eq ptr %28, null
  br i1 %29, label %30, label %32

30:                                               ; preds = %25
  %31 = load ptr, ptr %15, align 8, !tbaa !32
  call void @Py_DECREF(ptr noundef %31)
  store ptr null, ptr %5, align 8
  store i32 1, ptr %17, align 4
  br label %126

32:                                               ; preds = %25
  %33 = load ptr, ptr %16, align 8, !tbaa !32
  %34 = call i32 @PyList_Sort(ptr noundef %33)
  %35 = icmp ne i32 %34, 0
  br i1 %35, label %36, label %39

36:                                               ; preds = %32
  %37 = load ptr, ptr %16, align 8, !tbaa !32
  call void @Py_DECREF(ptr noundef %37)
  %38 = load ptr, ptr %15, align 8, !tbaa !32
  call void @Py_DECREF(ptr noundef %38)
  store ptr null, ptr %5, align 8
  store i32 1, ptr %17, align 4
  br label %126

39:                                               ; preds = %32
  %40 = load ptr, ptr %16, align 8, !tbaa !32
  %41 = call i64 @PyList_GET_SIZE(ptr noundef %40)
  store i64 %41, ptr %11, align 8, !tbaa !24
  store i64 0, ptr %12, align 8, !tbaa !24
  br label %42

42:                                               ; preds = %120, %39
  %43 = load i64, ptr %12, align 8, !tbaa !24
  %44 = load i64, ptr %11, align 8, !tbaa !24
  %45 = icmp slt i64 %43, %44
  br i1 %45, label %46, label %123

46:                                               ; preds = %42
  %47 = load ptr, ptr %16, align 8, !tbaa !32
  %48 = getelementptr inbounds nuw %struct.PyListObject, ptr %47, i32 0, i32 1
  %49 = load ptr, ptr %48, align 8, !tbaa !26
  %50 = load i64, ptr %12, align 8, !tbaa !24
  %51 = getelementptr ptr, ptr %49, i64 %50
  %52 = load ptr, ptr %51, align 8, !tbaa !32
  store ptr %52, ptr %13, align 8, !tbaa !32
  %53 = load ptr, ptr %6, align 8, !tbaa !32
  %54 = load ptr, ptr %13, align 8, !tbaa !32
  %55 = call ptr @PyDict_GetItemWithError(ptr noundef %53, ptr noundef %54)
  store ptr %55, ptr %14, align 8, !tbaa !32
  %56 = load ptr, ptr %14, align 8, !tbaa !32
  %57 = icmp ne ptr %56, null
  br i1 %57, label %67, label %58

58:                                               ; preds = %46
  %59 = call ptr @PyErr_Occurred()
  %60 = icmp ne ptr %59, null
  br i1 %60, label %64, label %61

61:                                               ; preds = %58
  %62 = load ptr, ptr @PyExc_KeyError, align 8, !tbaa !32
  %63 = load ptr, ptr %13, align 8, !tbaa !32
  call void @PyErr_SetObject(ptr noundef %62, ptr noundef %63)
  br label %64

64:                                               ; preds = %61, %58
  %65 = load ptr, ptr %16, align 8, !tbaa !32
  call void @Py_DECREF(ptr noundef %65)
  %66 = load ptr, ptr %15, align 8, !tbaa !32
  call void @Py_DECREF(ptr noundef %66)
  store ptr null, ptr %5, align 8
  store i32 1, ptr %17, align 4
  br label %126

67:                                               ; preds = %46
  call void @llvm.lifetime.start.p0(i64 8, ptr %18) #8
  %68 = load ptr, ptr %14, align 8, !tbaa !32
  %69 = call i64 @PyLong_AsLong(ptr noundef %68)
  store i64 %69, ptr %18, align 8, !tbaa !24
  %70 = load i64, ptr %18, align 8, !tbaa !24
  %71 = icmp eq i64 %70, -1
  br i1 %71, label %72, label %78

72:                                               ; preds = %67
  %73 = call ptr @PyErr_Occurred()
  %74 = icmp ne ptr %73, null
  br i1 %74, label %75, label %78

75:                                               ; preds = %72
  %76 = load ptr, ptr %16, align 8, !tbaa !32
  call void @Py_DECREF(ptr noundef %76)
  %77 = load ptr, ptr %15, align 8, !tbaa !32
  call void @Py_DECREF(ptr noundef %77)
  store ptr null, ptr %5, align 8
  store i32 1, ptr %17, align 4
  br label %117

78:                                               ; preds = %72, %67
  %79 = load i64, ptr %18, align 8, !tbaa !24
  %80 = ashr i64 %79, 12
  %81 = and i64 %80, 15
  %82 = load i32, ptr %7, align 4, !tbaa !50
  %83 = sext i32 %82 to i64
  %84 = icmp eq i64 %81, %83
  br i1 %84, label %91, label %85

85:                                               ; preds = %78
  %86 = load i64, ptr %18, align 8, !tbaa !24
  %87 = load i32, ptr %8, align 4, !tbaa !50
  %88 = sext i32 %87 to i64
  %89 = and i64 %86, %88
  %90 = icmp ne i64 %89, 0
  br i1 %90, label %91, label %116

91:                                               ; preds = %85, %78
  call void @llvm.lifetime.start.p0(i64 8, ptr %19) #8
  %92 = load i64, ptr %10, align 8, !tbaa !24
  %93 = call ptr @PyLong_FromSsize_t(i64 noundef %92)
  store ptr %93, ptr %19, align 8, !tbaa !32
  %94 = load ptr, ptr %19, align 8, !tbaa !32
  %95 = icmp eq ptr %94, null
  br i1 %95, label %96, label %99

96:                                               ; preds = %91
  %97 = load ptr, ptr %16, align 8, !tbaa !32
  call void @Py_DECREF(ptr noundef %97)
  %98 = load ptr, ptr %15, align 8, !tbaa !32
  call void @Py_DECREF(ptr noundef %98)
  store ptr null, ptr %5, align 8
  store i32 1, ptr %17, align 4
  br label %113

99:                                               ; preds = %91
  %100 = load i64, ptr %10, align 8, !tbaa !24
  %101 = add i64 %100, 1
  store i64 %101, ptr %10, align 8, !tbaa !24
  %102 = load ptr, ptr %15, align 8, !tbaa !32
  %103 = load ptr, ptr %13, align 8, !tbaa !32
  %104 = load ptr, ptr %19, align 8, !tbaa !32
  %105 = call i32 @PyDict_SetItem(ptr noundef %102, ptr noundef %103, ptr noundef %104)
  %106 = icmp slt i32 %105, 0
  br i1 %106, label %107, label %111

107:                                              ; preds = %99
  %108 = load ptr, ptr %16, align 8, !tbaa !32
  call void @Py_DECREF(ptr noundef %108)
  %109 = load ptr, ptr %19, align 8, !tbaa !32
  call void @Py_DECREF(ptr noundef %109)
  %110 = load ptr, ptr %15, align 8, !tbaa !32
  call void @Py_DECREF(ptr noundef %110)
  store ptr null, ptr %5, align 8
  store i32 1, ptr %17, align 4
  br label %113

111:                                              ; preds = %99
  %112 = load ptr, ptr %19, align 8, !tbaa !32
  call void @Py_DECREF(ptr noundef %112)
  store i32 0, ptr %17, align 4
  br label %113

113:                                              ; preds = %111, %107, %96
  call void @llvm.lifetime.end.p0(i64 8, ptr %19) #8
  %114 = load i32, ptr %17, align 4
  switch i32 %114, label %117 [
    i32 0, label %115
  ]

115:                                              ; preds = %113
  br label %116

116:                                              ; preds = %115, %85
  store i32 0, ptr %17, align 4
  br label %117

117:                                              ; preds = %116, %113, %75
  call void @llvm.lifetime.end.p0(i64 8, ptr %18) #8
  %118 = load i32, ptr %17, align 4
  switch i32 %118, label %126 [
    i32 0, label %119
  ]

119:                                              ; preds = %117
  br label %120

120:                                              ; preds = %119
  %121 = load i64, ptr %12, align 8, !tbaa !24
  %122 = add i64 %121, 1
  store i64 %122, ptr %12, align 8, !tbaa !24
  br label %42, !llvm.loop !81

123:                                              ; preds = %42
  %124 = load ptr, ptr %16, align 8, !tbaa !32
  call void @Py_DECREF(ptr noundef %124)
  %125 = load ptr, ptr %15, align 8, !tbaa !32
  store ptr %125, ptr %5, align 8
  store i32 1, ptr %17, align 4
  br label %126

126:                                              ; preds = %123, %117, %64, %36, %30, %24
  call void @llvm.lifetime.end.p0(i64 8, ptr %16) #8
  call void @llvm.lifetime.end.p0(i64 8, ptr %15) #8
  call void @llvm.lifetime.end.p0(i64 8, ptr %14) #8
  call void @llvm.lifetime.end.p0(i64 8, ptr %13) #8
  call void @llvm.lifetime.end.p0(i64 8, ptr %12) #8
  call void @llvm.lifetime.end.p0(i64 8, ptr %11) #8
  call void @llvm.lifetime.end.p0(i64 8, ptr %10) #8
  %127 = load ptr, ptr %5, align 8
  ret ptr %127
}