; Function Attrs: nounwind uwtable
define internal fastcc ptr @dictbytype(ptr noundef %0, i32 noundef range(i32 4, 6) %1, i32 noundef range(i32 64, 2049) %2, i64 noundef %3) unnamed_addr #0 {
  %5 = tail call ptr @PyDict_New() #11
  %6 = icmp eq ptr %5, null
  br i1 %6, label %Py_DECREF.exit86, label %7

7:                                                ; preds = %4
  %8 = tail call ptr @PyDict_Keys(ptr noundef %0) #11
  %9 = icmp eq ptr %8, null
  br i1 %9, label %10, label %15

10:                                               ; preds = %7
  %11 = load i32, ptr %5, align 8, !tbaa !4
  %.not.i85 = icmp sgt i32 %11, -1
  br i1 %.not.i85, label %12, label %Py_DECREF.exit86

12:                                               ; preds = %10
  %13 = add nsw i32 %11, -1
  store i32 %13, ptr %5, align 8, !tbaa !4
  %14 = icmp eq i32 %13, 0
  br i1 %14, label %Py_DECREF.exit86.sink.split, label %Py_DECREF.exit86

15:                                               ; preds = %7
  %16 = tail call i32 @PyList_Sort(ptr noundef nonnull %8) #11
  %.not = icmp eq i32 %16, 0
  br i1 %.not, label %27, label %17

17:                                               ; preds = %15
  %18 = load i32, ptr %8, align 8, !tbaa !4
  %.not.i83 = icmp sgt i32 %18, -1
  br i1 %.not.i83, label %19, label %Py_DECREF.exit84

19:                                               ; preds = %17
  %20 = add nsw i32 %18, -1
  store i32 %20, ptr %8, align 8, !tbaa !4
  %21 = icmp eq i32 %20, 0
  br i1 %21, label %22, label %Py_DECREF.exit84

22:                                               ; preds = %19
  tail call void @_Py_Dealloc(ptr noundef nonnull %8) #11
  br label %Py_DECREF.exit84

Py_DECREF.exit84:                                 ; preds = %17, %19, %22
  %23 = load i32, ptr %5, align 8, !tbaa !4
  %.not.i81 = icmp sgt i32 %23, -1
  br i1 %.not.i81, label %24, label %Py_DECREF.exit86

24:                                               ; preds = %Py_DECREF.exit84
  %25 = add nsw i32 %23, -1
  store i32 %25, ptr %5, align 8, !tbaa !4
  %26 = icmp eq i32 %25, 0
  br i1 %26, label %Py_DECREF.exit86.sink.split, label %Py_DECREF.exit86

27:                                               ; preds = %15
  %28 = getelementptr i8, ptr %8, i64 16
  %.val = load i64, ptr %28, align 8, !tbaa !20
  %29 = icmp sgt i64 %.val, 0
  br i1 %29, label %.lr.ph, label %._crit_edge

.lr.ph:                                           ; preds = %27
  %30 = getelementptr inbounds nuw i8, ptr %8, i64 24
  %31 = zext nneg i32 %1 to i64
  %32 = zext nneg i32 %2 to i64
  br label %33

33:                                               ; preds = %.lr.ph, %Py_DECREF.exit74
  %.045108 = phi i64 [ %3, %.lr.ph ], [ %.146, %Py_DECREF.exit74 ]
  %.051107 = phi i64 [ 0, %.lr.ph ], [ %110, %Py_DECREF.exit74 ]
  %34 = load ptr, ptr %30, align 8, !tbaa !25
  %35 = getelementptr ptr, ptr %34, i64 %.051107
  %36 = load ptr, ptr %35, align 8, !tbaa !28
  %37 = tail call ptr @PyDict_GetItemWithError(ptr noundef %0, ptr noundef %36) #11
  %.not56 = icmp eq ptr %37, null
  br i1 %.not56, label %38, label %52

38:                                               ; preds = %33
  %39 = tail call ptr @PyErr_Occurred() #11
  %.not57 = icmp eq ptr %39, null
  br i1 %.not57, label %40, label %42

40:                                               ; preds = %38
  %41 = load ptr, ptr @PyExc_KeyError, align 8, !tbaa !28
  tail call void @PyErr_SetObject(ptr noundef %41, ptr noundef %36) #11
  br label %42

42:                                               ; preds = %40, %38
  %43 = load i32, ptr %8, align 8, !tbaa !4
  %.not.i79 = icmp sgt i32 %43, -1
  br i1 %.not.i79, label %44, label %Py_DECREF.exit80

44:                                               ; preds = %42
  %45 = add nsw i32 %43, -1
  store i32 %45, ptr %8, align 8, !tbaa !4
  %46 = icmp eq i32 %45, 0
  br i1 %46, label %47, label %Py_DECREF.exit80

47:                                               ; preds = %44
  tail call void @_Py_Dealloc(ptr noundef nonnull %8) #11
  br label %Py_DECREF.exit80

Py_DECREF.exit80:                                 ; preds = %42, %44, %47
  %48 = load i32, ptr %5, align 8, !tbaa !4
  %.not.i77 = icmp sgt i32 %48, -1
  br i1 %.not.i77, label %49, label %Py_DECREF.exit86

49:                                               ; preds = %Py_DECREF.exit80
  %50 = add nsw i32 %48, -1
  store i32 %50, ptr %5, align 8, !tbaa !4
  %51 = icmp eq i32 %50, 0
  br i1 %51, label %Py_DECREF.exit86.sink.split, label %Py_DECREF.exit86

52:                                               ; preds = %33
  %53 = tail call i64 @PyLong_AsLong(ptr noundef nonnull %37) #11
  %54 = icmp eq i64 %53, -1
  br i1 %54, label %55, label %67

55:                                               ; preds = %52
  %56 = tail call ptr @PyErr_Occurred() #11
  %.not58 = icmp eq ptr %56, null
  br i1 %.not58, label %67, label %57

57:                                               ; preds = %55
  %58 = load i32, ptr %8, align 8, !tbaa !4
  %.not.i75 = icmp sgt i32 %58, -1
  br i1 %.not.i75, label %59, label %Py_DECREF.exit76

59:                                               ; preds = %57
  %60 = add nsw i32 %58, -1
  store i32 %60, ptr %8, align 8, !tbaa !4
  %61 = icmp eq i32 %60, 0
  br i1 %61, label %62, label %Py_DECREF.exit76

62:                                               ; preds = %59
  tail call void @_Py_Dealloc(ptr noundef nonnull %8) #11
  br label %Py_DECREF.exit76

Py_DECREF.exit76:                                 ; preds = %57, %59, %62
  %63 = load i32, ptr %5, align 8, !tbaa !4
  %.not.i73 = icmp sgt i32 %63, -1
  br i1 %.not.i73, label %64, label %Py_DECREF.exit86

64:                                               ; preds = %Py_DECREF.exit76
  %65 = add nsw i32 %63, -1
  store i32 %65, ptr %5, align 8, !tbaa !4
  %66 = icmp eq i32 %65, 0
  br i1 %66, label %Py_DECREF.exit86.sink.split, label %Py_DECREF.exit86

67:                                               ; preds = %55, %52
  %68 = lshr i64 %53, 12
  %69 = and i64 %68, 15
  %70 = icmp ne i64 %69, %31
  %71 = and i64 %53, %32
  %.not59 = icmp eq i64 %71, 0
  %or.cond = select i1 %70, i1 %.not59, i1 false
  br i1 %or.cond, label %Py_DECREF.exit74, label %72

72:                                               ; preds = %67
  %73 = tail call ptr @PyLong_FromSsize_t(i64 noundef %.045108) #11
  %74 = icmp eq ptr %73, null
  br i1 %74, label %75, label %85

75:                                               ; preds = %72
  %76 = load i32, ptr %8, align 8, !tbaa !4
  %.not.i71 = icmp sgt i32 %76, -1
  br i1 %.not.i71, label %77, label %Py_DECREF.exit72

77:                                               ; preds = %75
  %78 = add nsw i32 %76, -1
  store i32 %78, ptr %8, align 8, !tbaa !4
  %79 = icmp eq i32 %78, 0
  br i1 %79, label %80, label %Py_DECREF.exit72

80:                                               ; preds = %77
  tail call void @_Py_Dealloc(ptr noundef nonnull %8) #11
  br label %Py_DECREF.exit72

Py_DECREF.exit72:                                 ; preds = %75, %77, %80
  %81 = load i32, ptr %5, align 8, !tbaa !4
  %.not.i69 = icmp sgt i32 %81, -1
  br i1 %.not.i69, label %82, label %Py_DECREF.exit86

82:                                               ; preds = %Py_DECREF.exit72
  %83 = add nsw i32 %81, -1
  store i32 %83, ptr %5, align 8, !tbaa !4
  %84 = icmp eq i32 %83, 0
  br i1 %84, label %Py_DECREF.exit86.sink.split, label %Py_DECREF.exit86

85:                                               ; preds = %72
  %86 = add i64 %.045108, 1
  %87 = tail call i32 @PyDict_SetItem(ptr noundef nonnull %5, ptr noundef %36, ptr noundef nonnull %73) #11
  %88 = icmp slt i32 %87, 0
  br i1 %88, label %89, label %104

89:                                               ; preds = %85
  %90 = load i32, ptr %8, align 8, !tbaa !4
  %.not.i67 = icmp sgt i32 %90, -1
  br i1 %.not.i67, label %91, label %Py_DECREF.exit68

91:                                               ; preds = %89
  %92 = add nsw i32 %90, -1
  store i32 %92, ptr %8, align 8, !tbaa !4
  %93 = icmp eq i32 %92, 0
  br i1 %93, label %94, label %Py_DECREF.exit68

94:                                               ; preds = %91
  tail call void @_Py_Dealloc(ptr noundef nonnull %8) #11
  br label %Py_DECREF.exit68

Py_DECREF.exit68:                                 ; preds = %89, %91, %94
  %95 = load i32, ptr %73, align 8, !tbaa !4
  %.not.i65 = icmp sgt i32 %95, -1
  br i1 %.not.i65, label %96, label %Py_DECREF.exit66

96:                                               ; preds = %Py_DECREF.exit68
  %97 = add nsw i32 %95, -1
  store i32 %97, ptr %73, align 8, !tbaa !4
  %98 = icmp eq i32 %97, 0
  br i1 %98, label %99, label %Py_DECREF.exit66

99:                                               ; preds = %96
  tail call void @_Py_Dealloc(ptr noundef nonnull %73) #11
  br label %Py_DECREF.exit66

Py_DECREF.exit66:                                 ; preds = %Py_DECREF.exit68, %96, %99
  %100 = load i32, ptr %5, align 8, !tbaa !4
  %.not.i63 = icmp sgt i32 %100, -1
  br i1 %.not.i63, label %101, label %Py_DECREF.exit86

101:                                              ; preds = %Py_DECREF.exit66
  %102 = add nsw i32 %100, -1
  store i32 %102, ptr %5, align 8, !tbaa !4
  %103 = icmp eq i32 %102, 0
  br i1 %103, label %Py_DECREF.exit86.sink.split, label %Py_DECREF.exit86

104:                                              ; preds = %85
  %105 = load i32, ptr %73, align 8, !tbaa !4
  %.not.i61 = icmp sgt i32 %105, -1
  br i1 %.not.i61, label %106, label %Py_DECREF.exit74

106:                                              ; preds = %104
  %107 = add nsw i32 %105, -1
  store i32 %107, ptr %73, align 8, !tbaa !4
  %108 = icmp eq i32 %107, 0
  br i1 %108, label %109, label %Py_DECREF.exit74

109:                                              ; preds = %106
  tail call void @_Py_Dealloc(ptr noundef nonnull %73) #11
  br label %Py_DECREF.exit74

Py_DECREF.exit74:                                 ; preds = %67, %109, %106, %104
  %.146 = phi i64 [ %.045108, %67 ], [ %86, %104 ], [ %86, %106 ], [ %86, %109 ]
  %110 = add nuw nsw i64 %.051107, 1
  %exitcond.not = icmp eq i64 %110, %.val
  br i1 %exitcond.not, label %._crit_edge, label %33, !llvm.loop !68

._crit_edge:                                      ; preds = %Py_DECREF.exit74, %27
  %111 = load i32, ptr %8, align 8, !tbaa !4
  %.not.i = icmp sgt i32 %111, -1
  br i1 %.not.i, label %112, label %Py_DECREF.exit86

112:                                              ; preds = %._crit_edge
  %113 = add nsw i32 %111, -1
  store i32 %113, ptr %8, align 8, !tbaa !4
  %114 = icmp eq i32 %113, 0
  br i1 %114, label %Py_DECREF.exit86.sink.split, label %Py_DECREF.exit86

Py_DECREF.exit86.sink.split:                      ; preds = %112, %101, %82, %64, %49, %24, %12
  %.sink = phi ptr [ %5, %12 ], [ %5, %24 ], [ %5, %49 ], [ %5, %64 ], [ %5, %82 ], [ %5, %101 ], [ %8, %112 ]
  %.0.ph = phi ptr [ null, %12 ], [ null, %24 ], [ null, %49 ], [ null, %64 ], [ null, %82 ], [ null, %101 ], [ %5, %112 ]
  tail call void @_Py_Dealloc(ptr noundef nonnull %.sink) #11
  br label %Py_DECREF.exit86

Py_DECREF.exit86:                                 ; preds = %Py_DECREF.exit86.sink.split, %101, %Py_DECREF.exit66, %82, %Py_DECREF.exit72, %64, %Py_DECREF.exit76, %112, %._crit_edge, %49, %Py_DECREF.exit80, %24, %Py_DECREF.exit84, %12, %10, %4
  %.0 = phi ptr [ null, %4 ], [ null, %10 ], [ null, %12 ], [ null, %Py_DECREF.exit84 ], [ null, %24 ], [ null, %Py_DECREF.exit80 ], [ null, %49 ], [ %5, %._crit_edge ], [ %5, %112 ], [ null, %Py_DECREF.exit76 ], [ null, %64 ], [ null, %Py_DECREF.exit72 ], [ null, %82 ], [ null, %Py_DECREF.exit66 ], [ null, %101 ], [ %.0.ph, %Py_DECREF.exit86.sink.split ]
  ret ptr %.0
}